target datalayout = "e-m:e-p270:32:32-p271:32:32-p272:64:64-i64:64-i128:128-f80:128-n8:16:32:64-S128"
target triple = "x86_64-pc-linux-gnu"

@justprint = internal global i32 0, align 4
@.str.16 = private unnamed_addr constant [9 x i8] c"test_big\00", align 1
@.str.17 = private unnamed_addr constant [8 x i8] c"test_fp\00", align 1
@.str.18 = private unnamed_addr constant [8 x i8] c"test_zu\00", align 1
@.str.19 = private unnamed_addr constant [7 x i8] c"test_j\00", align 1

; Function Attrs: nounwind uwtable
define dso_local i32 @setup_tests() #0 {
  %1 = alloca i32, align 4
  %2 = alloca i32, align 4
  %3 = alloca i32, align 4
  call void @llvm.lifetime.start.p0(i64 4, ptr %2) #4
  br label %4

4:                                                ; preds = %12, %0
  %5 = call i32 @opt_next()
  store i32 %5, ptr %2, align 4, !tbaa !4
  %6 = icmp ne i32 %5, 0
  br i1 %6, label %7, label %13

7:                                                ; preds = %4
  %8 = load i32, ptr %2, align 4, !tbaa !4
  switch i32 %8, label %11 [
    i32 1, label %9
    i32 500, label %10
    i32 501, label %10
    i32 502, label %10
    i32 503, label %10
    i32 504, label %10
    i32 505, label %10
  ]

9:                                                ; preds = %7
  store i32 1, ptr @justprint, align 4, !tbaa !4
  br label %12

10:                                               ; preds = %7, %7, %7, %7, %7, %7
  br label %12

11:                                               ; preds = %7
  store i32 0, ptr %1, align 4
  store i32 1, ptr %3, align 4
  br label %14

12:                                               ; preds = %10, %9
  br label %4, !llvm.loop !8

13:                                               ; preds = %4
  call void @add_test(ptr noundef @.str.16, ptr noundef @test_big)
  call void @add_all_tests(ptr noundef @.str.17, ptr noundef @test_fp, i32 noundef 7, i32 noundef 1)
  call void @add_all_tests(ptr noundef @.str.18, ptr noundef @test_zu, i32 noundef 4, i32 noundef 1)
  call void @add_all_tests(ptr noundef @.str.19, ptr noundef @test_j, i32 noundef 4, i32 noundef 1)
  store i32 1, ptr %1, align 4
  store i32 1, ptr %3, align 4
  br label %14

14:                                               ; preds = %13, %11
  call void @llvm.lifetime.end.p0(i64 4, ptr %2) #4
  %15 = load i32, ptr %1, align 4
  ret i32 %15
}