; Function Attrs: nounwind uwtable
define dso_local range(i32 0, 2) i32 @setup_tests() local_unnamed_addr #1 {
  br label %1

1:                                                ; preds = %.backedge, %0
  %2 = tail call i32 @opt_next() #9
  switch i32 %2, label %.loopexit [
    i32 0, label %4
    i32 1, label %3
    i32 500, label %.backedge
    i32 501, label %.backedge
    i32 502, label %.backedge
    i32 503, label %.backedge
    i32 504, label %.backedge
    i32 505, label %.backedge
  ]

.backedge:                                        ; preds = %1, %1, %1, %1, %1, %1, %3
  br label %1, !llvm.loop !4

3:                                                ; preds = %1
  store i1 true, ptr @justprint, align 4
  br label %.backedge

4:                                                ; preds = %1
  tail call void @add_test(ptr noundef nonnull @.str.16, ptr noundef nonnull @test_big) #9
  tail call void @add_all_tests(ptr noundef nonnull @.str.17, ptr noundef nonnull @test_fp, i32 noundef 7, i32 noundef 1) #9
  tail call void @add_all_tests(ptr noundef nonnull @.str.18, ptr noundef nonnull @test_zu, i32 noundef 4, i32 noundef 1) #9
  tail call void @add_all_tests(ptr noundef nonnull @.str.19, ptr noundef nonnull @test_j, i32 noundef 4, i32 noundef 1) #9
  br label %.loopexit

.loopexit:                                        ; preds = %1, %4
  %.0 = phi i32 [ 1, %4 ], [ 0, %1 ]
  ret i32 %.0
}